; Function Attrs: nounwind uwtable
define internal range(i32 -1, 61) i32 @internalSubset(ptr noundef captures(none) %0, i32 noundef %1, ptr noundef %2, ptr noundef %3, ptr noundef %4) #1 {
  switch i32 %1, label %44 [
    i32 15, label %common.exit
    i32 16, label %6
    i32 11, label %40
    i32 13, label %41
    i32 28, label %42
    i32 26, label %43
    i32 -4, label %common.exit
  ]

6:                                                ; preds = %5
  %7 = getelementptr inbounds nuw i8, ptr %4, i64 48
  %8 = load ptr, ptr %7, align 8, !tbaa !12
  %9 = getelementptr inbounds nuw i8, ptr %4, i64 128
  %10 = load i32, ptr %9, align 8, !tbaa !14
  %11 = shl i32 %10, 1
  %12 = sext i32 %11 to i64
  %13 = getelementptr i8, ptr %2, i64 %12
  %14 = tail call i32 %8(ptr noundef %4, ptr noundef %13, ptr noundef %3, ptr noundef nonnull @KW_ENTITY) #5
  %.not = icmp eq i32 %14, 0
  br i1 %.not, label %16, label %15

15:                                               ; preds = %6
  store ptr @entity0, ptr %0, align 8, !tbaa !3
  br label %common.exit

16:                                               ; preds = %6
  %17 = load ptr, ptr %7, align 8, !tbaa !12
  %18 = load i32, ptr %9, align 8, !tbaa !14
  %19 = shl i32 %18, 1
  %20 = sext i32 %19 to i64
  %21 = getelementptr i8, ptr %2, i64 %20
  %22 = tail call i32 %17(ptr noundef nonnull %4, ptr noundef %21, ptr noundef %3, ptr noundef nonnull @KW_ATTLIST) #5
  %.not28 = icmp eq i32 %22, 0
  br i1 %.not28, label %24, label %23

23:                                               ; preds = %16
  store ptr @attlist0, ptr %0, align 8, !tbaa !3
  br label %common.exit

24:                                               ; preds = %16
  %25 = load ptr, ptr %7, align 8, !tbaa !12
  %26 = load i32, ptr %9, align 8, !tbaa !14
  %27 = shl i32 %26, 1
  %28 = sext i32 %27 to i64
  %29 = getelementptr i8, ptr %2, i64 %28
  %30 = tail call i32 %25(ptr noundef nonnull %4, ptr noundef %29, ptr noundef %3, ptr noundef nonnull @KW_ELEMENT) #5
  %.not29 = icmp eq i32 %30, 0
  br i1 %.not29, label %32, label %31

31:                                               ; preds = %24
  store ptr @element0, ptr %0, align 8, !tbaa !3
  br label %common.exit

32:                                               ; preds = %24
  %33 = load ptr, ptr %7, align 8, !tbaa !12
  %34 = load i32, ptr %9, align 8, !tbaa !14
  %35 = shl i32 %34, 1
  %36 = sext i32 %35 to i64
  %37 = getelementptr i8, ptr %2, i64 %36
  %38 = tail call i32 %33(ptr noundef nonnull %4, ptr noundef %37, ptr noundef %3, ptr noundef nonnull @KW_NOTATION) #5
  %.not30 = icmp eq i32 %38, 0
  br i1 %.not30, label %.thread, label %39

39:                                               ; preds = %32
  store ptr @notation0, ptr %0, align 8, !tbaa !3
  br label %common.exit

40:                                               ; preds = %5
  br label %common.exit

41:                                               ; preds = %5
  br label %common.exit

42:                                               ; preds = %5
  br label %common.exit

43:                                               ; preds = %5
  store ptr @doctype5, ptr %0, align 8, !tbaa !3
  br label %common.exit

44:                                               ; preds = %5
  %45 = getelementptr inbounds nuw i8, ptr %0, i64 20
  %46 = load i32, ptr %45, align 4, !tbaa !9
  %47 = icmp eq i32 %46, 0
  %48 = icmp eq i32 %1, 28
  %or.cond.i = and i1 %48, %47
  br i1 %or.cond.i, label %common.exit, label %.thread

.thread:                                          ; preds = %32, %44
  store ptr @error, ptr %0, align 8, !tbaa !3
  br label %common.exit

common.exit:                                      ; preds = %.thread, %44, %5, %5, %43, %42, %41, %40, %39, %31, %23, %15
  %.0 = phi i32 [ 3, %43 ], [ 60, %42 ], [ 56, %41 ], [ 55, %40 ], [ 11, %15 ], [ 33, %23 ], [ 39, %31 ], [ 17, %39 ], [ 0, %5 ], [ 0, %5 ], [ -1, %.thread ], [ 59, %44 ]
  ret i32 %.0
}